(dp0
I0
(lp1
VIf you want to know what Batman V Superman is based on, read Frank Miller's The Dark Knight Returns
p2
aVHow would fans have reacted to Superman Returns if Twitter was a thing back then? Considering he was off planet for years? And he had a
p3
aVI liked a @YouTube video from @platanogames https://t.co/afhDGIODX6 Superman Returns - Epic Flying Gameplay - Man of Steel Takes
p4
aVWatch Batman vs Superman - The Dark Knight Returns 2 (HD) HD - https://t.co/XaJfUH7rTX https://t.co/JT95axEn78
p5
aVSuperman Returns en Space !
p6
aV@DougBenson\u000a#24 The Fifth Element\u000a#25 21Years: Richard Linklater\u000a#26 Superman Returns\u000a#27 Pacific Rim\u000a#366Movies #366Days #DLMChallenge
p7
aVSuperman Returns (DVD, 2006, Full Frame Edition) https://t.co/4A9Jqj8AAw https://t.co/opVknkZJbw
p8
aV(Superman Returns) Seoeon and Seojun Reveal Their Love for Each Other https://t.co/h4ihjTz6Tc #SupermanReturns #Seoeon #Seojun
p9
aV(Superman Returns) Song Triplets Are Addicted to Steamed Buns https://t.co/CrRO49rcWa #SupermanReturns #Daehan #Minguk #Manse #\uc288\ud37c\ub9e8\uc774\ub3cc\uc544\uc654\ub2e4 #\ub300\ud55c
p10
aVSuperman Returns #PlayStation2 Superman Returns Was Inspired by the Hit Film &amp; Tries to Recreate the Wonder of Being https://t.co/prAVL12zbh
p11
aV@N_ainadira tengok tak Superman Returns episodes Tablo kena babysit his daughter while his wife went shooting  TABLO RAPPER TAPI AYAH COMEL
p12
aVSuperman Returns Xbox Superman Returns Was Inspired by the Hit Film &amp; Tries to Recreate the Wonder Ofbeing the https://t.co/bAl8uEOkX0
p13
aVSuperman Returns Xbox 360 Superman Returns Was Inspired by the Hit Film &amp; Tries to Recreate the Wonder Ofbeing the https://t.co/y0uHaWr0Lp
p14
aVSuperman Returns Nintendo DS Inspired by the Blockbuster Movie and More Than 60 Years of the DC Comics Universe https://t.co/u9OzO7xpRE
p15
aVSuperman returns theme: https://t.co/K2fCrEdQrz
p16
aVI added a video to a @YouTube playlist https://t.co/glt2recFyG Deleted Scene: Return to Krypton SCENE - Superman Returns MOVIE (2006)
p17
aV#\u0627\u0648\u0644_\u0641\u064a\u0644\u0645_\u062f\u062e\u0644\u062a\u0647_\u0641\u064a_\u0627\u0644\u0633\u064a\u0646\u0645\u0627 \u000aSuperman returns https://t.co/7wYxRbPk55
p18
aV#\u0627\u0648\u0644_\u0641\u064a\u0644\u0645_\u062f\u062e\u0644\u062a\u0647_\u0641\u064a_\u0627\u0644\u0633\u064a\u0646\u0645\u0627\u000aSuperman returns 2006 \U0001f605
p19
aVGot lots of them.\u000aBen Affleck(Daredevil, Batman),\u000aHalle Berry(Catwoman, Storm),Brandon Routh(Atom, Superman Returns) https://t.co/8c83qO0aJS
p20
aVRT @TheSpencerPerry: UHHHHH.....why is there a Brandon Routh Superman Returns action figure in a Batman v Superman box w/ Cavill's face?? h\u2026
p21
aVJust watched Dark Knight Returns, and I really wanna fight Riddicks Bats with my Superman now lol.
p22
aVSuperman said:The Son became's the father \u000a                         ...and The Father became's the son \u2014 watching Superman Returns
p23
aV... i had a dream that i was dressing up daehan from the triplets in superman returns and i made him dress up like chan in adore u era omg
p24
aV... i had a dream that i was dressing up daehan from the triplets in superman returns and i made him dress up like chan in adore u era omg
p25
aV#dvd Superman Returns Blu-ray Blue Bluray Batman Spiderman https://t.co/yQY4dRLzXU https://t.co/aLJR0tpbli
p26
aV@clary_edwin ohhhhhhhhhh sorry i meant 2 say mini superman returns
p27
aVRT @SONGTRlPLETS: The new baby of The Superman Returns! Eugene and Taeyoung's Rohee \U0001f60a https://t.co/cXrgreSlGr
p28
aVRT @SONGTRlPLETS: The new baby of The Superman Returns! Eugene and Taeyoung's Rohee \U0001f60a https://t.co/cXrgreSlGr
p29
aVYeonjun is so cute. I wanna see him in Superman Returns TT_TT that must be great
p30
aVYeonjun is so cute. I wanna see him in Superman Returns TT_TT that must be great
p31
aVRT @SONGTRlPLETS: The new baby of The Superman Returns! Eugene and Taeyoung's Rohee \U0001f60a https://t.co/cXrgreSlGr
p32
aV(Superman Returns) Ki Tae-young Is Already a Master in Childcare https://t.co/cFLgPcGSYR #SupermanReturns #KiTaeyoung #Rohee
p33
aVWho still enjoys lyricism, romanticism, beauty for it's own sake? I enjoyed those qualities in Superman Returns in spite of bad reviews.
p34
aVWatching Superman Returns and blogging.
p35
aV\U0001f4f7 hellyeahsupermanandwonderwoman: Justice League Returns to the Cartoon Network. \u201cBatman, Superman and... https://t.co/MQEc1B6JxC
p36
aVRT @dmwinebarger: @SpeedShiftTV  Love to watch. Can't wait for Cocopah .. Superman returns #racermom #tweetyourseat #seeyouthere https://t.\u2026
p37
aV@namjachingu_khj ikr! Hope they can go on RM especially. Hehehe. And my personal wish... they can visit any of the Superman Returns babies!
p38
aV@SpeedShiftTV  Love to watch. Can't wait for Cocopah .. Superman returns #racermom #tweetyourseat #seeyouthere https://t.co/Ne7B9tZZDk
p39
aVHeading down the Lois Lane: The Superman Returns actress turned heads as she arrived https://t.co/dXylVGaQju
p40
aVNo one will ever understand how happy this makes me https://t.co/xWltBmVB2O #JusticeLeagueAction #DC #Superman #WonderWoman #Batman
p41
aVSuperman Returns Punch N Crush Electronic Gloves Bendy Bar 4+ Halloween Costume https://t.co/N4cgEy0NGs https://t.co/CqS6728QKi
p42
aVThe best Superman movie is SUPERMAN RETURNS. #ScienceFact
p43
aV@redscar64 Love Superman, but the way he was shoehorned into that series because they didn't have a Superman Returns cartoon tie-in was off.
p44
aVRT @soompi: #ChuSarang Gives Her Father a Makeover on \u201c#SupermanReturns\u201d http://t.co/uwJa5P1gKc http://t.co/t259houSRF
p45
asI1
(lp46
VRT @soofle_: The Triplets not being in Superman Returns anymore is just making me extremely sad. My fav triplets!!
p47
aV@DrMonkeybot I think someone watched Superman Returns, saw that he barely threw a punch &amp; thought "do y'know what would be awesome? If...
p48
aVHot Toys\u2019 armoured Batman v Superman figure is ready to fight: If you\u2019ve ever read The Dark Knight Returns (Or... https://t.co/saoJI9s65N
p49
aVHot Toys\u2019 armoured Batman v Superman figure is ready to fight: If you\u2019ve ever read The Dark Knight Returns (Or... https://t.co/4dZf7fcHLM
p50
aVPrediction: We don't see Batman nearly kill Superman like The Dark Knight Returns. We see more of The Death Of Superman in #BatmanvSuperman
p51
aVClark comes back the exact same time Superman returns from being "dead."
p52
aVGoing to rewatch chanbaek on superman returns
p53
aVRT @ComicsDune: #Superman returns to glory as the #ManofSteel faces his greatest enemy and also met with the pre-Flashpoint #KalEl! https:/\u2026
p54
aVmark zuckeberg would be a great cast for superman returns
p55
aV@ShadowTodd I don't know he was pretty hilarious in Superman Returns
p56
aVWatching superman returns @BrandonJRouth \U0001f60d\U0001f44d\U0001f525
p57
aVHUGE 30" DC COMICS SUPERMAN RETURNS MOVIE ACTION FIGURE RED CLOTH CAPE J2108 https://t.co/ZPQ3uspP1b https://t.co/FiO8BW5eDi
p58
aVHUGE 30" DC COMICS SUPERMAN RETURNS MOVIE ACTION FIGURE RED CLOTH CAPE J2108 https://t.co/OgQLBMONei https://t.co/rFfPSL9gkA
p59
aVSuperman Returns Movie Complete Card Set/Embossed Foil 2+5/Movie Memorabilia https://t.co/e8SJdrQyLb https://t.co/CQCL7IBxeQ
p60
aV@Bosslogic @TheCW_Legends @amellywood  the kriptonyte! Exactly like in The Dark Knight Returns! So Superman exists in CW's DC Universe!
p61
aVThe following is tweet from 2006:\u000a.\u000a.\u000aSuperman returns is not a bad movie, it is a good movie with a dumb script and bad characters\u000a\u000aThank u
p62
aVSuperman Returns some natural yoghurt that had passed it's sell by date #SupermarketMovies #longmovietitles @SeanMoncrieff
p63
aVRT @ninaathirahh: Truth to be told, my mom watched drama korea+oh my baby+superman returns more frequently than she watch drama melayu \U0001f602
p64
aVTruth to be told, my mom watched drama korea+oh my baby+superman returns more frequently than she watch drama melayu \U0001f602
p65
aVAlec Guiness is not in TFA. One syllable? smh. Superman Returns may have sucked, but THAT's how you bring back a dead legend. #marlonbrando
p66
aVRT @Torranceisbest: @fivefifths i walked out of Little Man, and walked into Superman Returns. \u000a\u000aThat was a bad night.
p67
aV@fivefifths i walked out of Little Man, and walked into Superman Returns. \u000a\u000aThat was a bad night.
p68
aVRT @KDramaStars: \u2018Superman Returns\u2019 Song Triplets Buy Their Dad Coffee https://t.co/s8FSr2WmG9 https://t.co/ULNA405Ffw
p69
aVRT @WorIdStarFight: BRUH SUPERMAN RETURNS\U0001f602\U0001f602 https://t.co/aiCnByxFyW
p70
aV@edierbarr @Shigeru_San Eso va a ser un sancocho horrible entre The Dark Knight Returns, Death of Superman y JLA Origins...
p71
aVNew Hot Toys DC Superman Returns Clark Kent 2 in 1 ver 1/6 Action Figure MMS50 https://t.co/w4tmFjczB0 https://t.co/6AWbLnsLTZ
p72
aVRT @stephfurlyy: Okay guys here's facts batman won superman 3 times in comics and 3 times in cartoon movies just watch the dark knight retu\u2026
p73
aVThe Dark Knight returns part 1 &amp; 2 animated movies \U0001f44c\U0001f44c\U0001f44c\U0001f44c\U0001f44c\U0001f44c\U0001f44c\u000a2nd part lo superman ni picha kottudu kodtadu
p74
aVSuperman Returns: The Videogame (Microsoft Xbox 360, 2006) - Bid Now! Only $9.99 https://t.co/P7717V28T9 https://t.co/u8NSOvSxHv
p75
aVHead of Chambers' piece https://t.co/5bZ86F68um\u000a@ImranKhanPTI @Shafqat_Mahmood @shazbkhanzdaGEO @AajKamranKhan @BBhuttoZardari @NasimZehra
p76
aVOkay guys here's facts batman won superman 3 times in comics and 3 times in cartoon movies just watch the dark knight returns part 2
p77
aVI liked a @YouTube video https://t.co/ar3oeRrPb7 Superman Returns - Playing the piano
p78
aV[READY STOCK] Superman Returns - Childcard Book + 2015 Superman Diary - Idr: 300.000 https://t.co/pvD2xAhNkD
p79
aVAbout to finish Frank Miller's The Dark Knight Returns as the final showdown between Batman v. Superman begins. https://t.co/uqqgudIXRO
p80
aVLois Lane stays even though she doesn't know when Superman will returns. :/
p81
aVSuperman Returns - Two Disc Special Edition #1642 https://t.co/h0iBmXBukb https://t.co/V8OY9ZiYyQ
p82
aVWatching Batman:The Dark Knight Returns part2.#Superman as douche bag tool of a Reagan/Bush like president. #AbsolutePower ...
p83
aV@WH_Woolhat I always wondered if the RETURNS sequel would involve Superman\u2019s son being brought up on murder charges.
p84
aVthe new family on superman returns is so cute ;;;; the dad is so nice to the cameramen too omg
p85
aV@BatmanNewsCom I've seen it many times. Same as Superman Returns and The Dark Knight Trilogy. Want to watch it again night be4 I watch BvS!
p86
aVinclusive ... batman begins&gt;&gt;&gt;&gt;superman returns
p87
aV@iontrone you mean the guy who played Superman in Superman Returns \U0001f914
p88
aVSaw that. Were they thinking they would stop with just a body. "Superman" returns. https://t.co/piBQ04b75Z
p89
aV@devincf is superman returns a good movie?
p90
aVhttps://t.co/0SeFt3L8sd Batman Superman Dark Knight Returns 30th Anniversary Figure 2-Pack (pre-order) https://t.co/DPFmvR3BEw
p91
aVhttps://t.co/4YEOmRd4qI #Batman The #Dark #Knight Returns #4 Nm/Mt Cgc 9.8 Vs. #Superman Dawn Of Justice #Buynow $91 https://t.co/e1edPZCKrm
p92
aV@ShimaLuan Quiz returns!! (Part 6!)\u000aTrump or Obama?\u000aDeadpool or Superman?\u000aJohn Cena or Hitler?
p93
aVRT @KoreanUpdates: #Minguk calls #AOA's #Seolhyun as a beautiful princess at latest episode of 'Superman Returns' #KoreanUpdates FJ https:/\u2026
p94
aVDamn. Brandon Routh is still so gorgeous. I had such a thing for him for about six months after Superman Returns.
p95
aVI like Superman ReturnS &amp; Brandon Ruth Was GREAT!!!!!!!!\u000a#LegendsOfTomorrow \u000a#justsayin
p96
asI2
(lp97
V@BrandonJRouth @TheCW_Legends I really enjoyed the premiere. Also thought you were great in Superman Returns.
p98
aV@BrandonRouthcom @400DaysMovie SWEEEEEEEET!  P.S. Loved you in Superman Returns, Arrow, &amp; Legends of Tomorrow!
p99
aV10 years ago in 2006\u000aSuperman returns was the 9th highest grossing movie worldwide https://t.co/L3HCkWJ6rt
p100
aVRT @NaqliStark: SUPERMAN RIPS IT OFF OMG THE DARK KNIGHT RETURNS VERSION OF THE GREEN ARROW https://t.co/5ho0ve5p7c
p101
aV@flargh I feel that the DC does better when its heroes inspire hope. Superman Returns is a worse movie than MoS, but I still like it more.
p102
aVSUPERMAN RIPS IT OFF OMG THE DARK KNIGHT RETURNS VERSION OF THE GREEN ARROW https://t.co/5ho0ve5p7c
p103
aV@heroichollywood flashpoint paradox is in my top. Dark knight returns, red hood, batman year one, and superman/batman apocalypse
p104
aVRT @AngelChooSarang: \u2764\u2764\u2764\U0001f618 RT @KDramaStars: \u2018Superman Returns\u2019 Choo Sarang Loves Milkshakes https://t.co/579Xr0cp2b https://t.co/EQAhpD2yJN
p105
aVSuperman Returns was such a bad movie.
p106
aV@CertainshadesL which results in the child in Superman Returns
p107
aV@GeorgeThomasABJ Didn't he get stabbed with it in "Superman Returns" and still wind up surviving?
p108
aVRT @KDramaStars: \u2018Superman Returns\u2019 Rohee Looks Just Like Her Mother Eugene https://t.co/072sUTUWKV https://t.co/TNManILJIB
p109
aVRT @KDramaStars: \u2018Superman Returns\u2019 Choo Sarang Loves Milkshakes https://t.co/B5Vx8pIxDa https://t.co/MGDp2WAOZg
p110
aVim watching superman returns with my mom and RAY PALMER FROM ARROW IS SUPERMAN WTF
p111
aVbrandon routh and kate bosworth are your 1's and 2's and parker posey has like one line of dialog in superman returns no wonder it sucks
p112
aVI'd seriously suggest reading " The dark knight returns" before the new bat/superman movie comes out.
p113
aVIs superman returns the one that the #Superman franchise wishes they could take back?  #ManofSteel
p114
aVActor Song Il Gook and his triplets Song Dae Han, Song Min Gook, and Song Guy Sae, MMA fighter Choo Sung Hoon ... https://t.co/DRYWzCrKgl
p115
aVActor Song Il Gook and his triplets Song Dae Han, Song Min Gook, and Song Guy Sae, MMA fighter Choo Sung Hoon ... https://t.co/abvVdFXLRm
p116
aVActor Song Il Gook and his triplets Song Dae Han, Song Min Gook, and Song Guy Sae, MMA fighter Choo Sung Hoon ... https://t.co/ycPevd3MOK
p117
aVActor Song Il Gook and his triplets Song Dae Han, Song Min Gook, and Song Guy Sae, MMA fighter Choo Sung Hoon ... https://t.co/K59SYa4Hsh
p118
aVActor Song Il Gook and his triplets Song Dae Han, Song Min Gook, and Song Guy Sae, MMA fighter Choo Sung Hoon ... https://t.co/tSe06PE4xV
p119
aVActor Song Il Gook and his triplets Song Dae Han, Song Min Gook, and Song Guy Sae, MMA fighter Choo Sung Hoon ... https://t.co/2OFZ9lV0Ug
p120
aVActor Song Il Gook and his triplets Song Dae Han, Song Min Gook, and Song Guy Sae, MMA fighter Choo Sung Hoon ... https://t.co/m5Nhq8JpIK
p121
aVActor Song Il Gook and his triplets Song Dae Han, Song Min Gook, and Song Guy Sae, MMA fighter Choo Sung Hoon ... https://t.co/YSEnGh4gLL
p122
aVRT @KDramaStars: \u2018Superman Returns\u2019 Choo Sarang Loves Milkshakes https://t.co/B5Vx8pIxDa https://t.co/MGDp2WAOZg
p123
aVRT @KDramaStars: \u2018Superman Returns\u2019 Rohee Looks Just Like Her Mother Eugene https://t.co/072sUTUWKV https://t.co/TNManILJIB
p124
aVRT @TMT_GooharaKR: Actor Song Il Gook and his triplets Song Dae Han, Song Min Gook, and Song Guy Sae, MMA fighter Choo Sung Hoon and\u2026 https\u2026
p125
aV\u2018Superman Returns\u2019 Rohee Looks Much like Her Mom Eugene https://t.co/FfV5pBinPV
p126
aV\u2018Superman Returns\u2019 Choo Sarang Loves Milkshakes https://t.co/13s4nPGOp0
p127
aVActor Song Il Gook and his triplets Song Dae Han, Song Min Gook, and Song Guy Sae, MMA fighter Choo Sung Hoon ... https://t.co/bskVZukENQ
p128
aVActor Song Il Gook and his triplets Song Dae Han, Song Min Gook, and Song Guy Sae, MMA fighter Choo Sung Hoon ... https://t.co/JWebB0Nc6d
p129
aVRT @AngelChooSarang: \u2764\u2764\u2764\U0001f618 RT @KDramaStars: \u2018Superman Returns\u2019 Choo Sarang Loves Milkshakes https://t.co/579Xr0cp2b https://t.co/EQAhpD2yJN
p130
aV\u2764\u2764\u2764\U0001f618 RT @KDramaStars: \u2018Superman Returns\u2019 Choo Sarang Loves Milkshakes https://t.co/579Xr0cp2b https://t.co/EQAhpD2yJN
p131
aVRT @negroodammus: For those of you that can't wait to see #Batman vs. #Superman I suggest you watch Dark Knight Returns Parts 1 &amp; 2. You wo\u2026
p132
aVFor those of you that can't wait to see #Batman vs. #Superman I suggest you watch Dark Knight Returns Parts 1 &amp; 2. You wont be upset
p133
aV\u2018Superman Returns\u2019 Rohee Looks Just Like Her Mother Eugene https://t.co/CMVNoZFDM7 https://t.co/LaouHRRNP5
p134
aV\u2018Superman Returns\u2019 Choo Sarang Loves Milkshakes https://t.co/ftrPjrVnig https://t.co/p2ZrKnvzn2
p135
aV\u2018Superman Returns\u2019 Rohee Looks Just Like Her Mother Eugene https://t.co/QGr0OJtORZ https://t.co/k6urO0e3bS
p136
aV\u2018Superman Returns\u2019 Rohee Looks Just Like Her Mother Eugene https://t.co/uF26mZEirb
p137
aV\u2018Superman Returns\u2019 Choo Sarang Loves Milkshakes https://t.co/5F6nZiKlu0
p138
aV\u2018Superman Returns\u2019 Choo Sarang Loves Milkshakes https://t.co/sH4mF9fNug https://t.co/jRkNn9pjy9
p139
aV\u2018Superman Returns\u2019 Rohee Looks Just Like Her Mother Eugene https://t.co/Jf7gO6i65q https://t.co/iUuzqcTHjI
p140
aV\u2018Superman Returns\u2019 Choo Sarang Loves Milkshakes https://t.co/njdaJCzCpV https://t.co/GLLNU4lzQU
p141
aV\u2018Superman Returns\u2019 Rohee Looks Just Like Her Mother Eugene https://t.co/072sUTUWKV https://t.co/TNManILJIB
p142
aV\u2018Superman Returns\u2019 Choo Sarang Loves Milkshakes https://t.co/B5Vx8pIxDa https://t.co/MGDp2WAOZg
p143
aVActor Song Il Gook and his triplets Song Dae Han, Song Min Gook, and Song Guy Sae, MMA fighter Choo Sung Hoon and\u2026 https://t.co/W7OSebx2G6
p144
aVActor Song Il Gook and his triplets Song Dae Han, Song Min Gook, and Song Guy Sae, MMA fighter Choo Sung Hoon and\u2026 https://t.co/R4r9UaZpKo
p145
aVActor Song Il Gook and his triplets Song Dae Han, Song Min Gook, and Song Guy Sae, MMA fighter Choo Sung Hoon and\u2026 https://t.co/7l2Fj3ILel
p146
aVActor Song Il Gook and his triplets Song Dae Han, Song Min Gook, and Song Guy Sae, MMA fighter Choo Sung Hoon and\u2026 https://t.co/9bPlXcBC1B
p147
asI3
(lp148
VRT @kookiejuseyo: Song Triplets leaving from Superman Returns \U0001f62d\U0001f62d\U0001f62d https://t.co/T5x7JSlWgp
p149
aVFalling asleep really gets in the way of watching a movie. Left off at the boat sinking scene. Resuming and finishing off Superman Returns
p150
aVWatching Superman Returns and all I'm thinking is the actress playing Lois Lane is crap.
p151
aVRT @AndyGandii: Seeing people go on about Batman vs Superman but they're not even real fans. Didn't see them away at The Dark Knight Return\u2026
p152
aVSeeing people go on about Batman vs Superman but they're not even real fans. Didn't see them away at The Dark Knight Returns in 86'.
p153
aVHappy Birthday @gianluigibuffon many happy returns Superman @juventusfcid @juventusfcen #forzajuve
p154
aVsuperman returns is really blooming.what henry said can be controvesial.
p155
aVSuperman Returns (#dvd, 2006, Full Frame Edition) NEW...SEALED https://t.co/8KfQpMZ9do https://t.co/YZJUl09Ed5
p156
aVBatman vs Superman - The Dark Knight Returns 2 (HD) #Batman vs Superman  https://t.co/BkMj3lBauD
p157
aVSuperman Returns
p158
aVI do prefer the Superman Returns costume to the ones in Man of Steel &amp; Batman vs Superman Dawn of Justice.
p159
aVIf you want to read about what happens in Batman vs. Superman, read the Dark Knight Returns and\u2026 https://t.co/Q1JZVgKqYP
p160
aVJust finished watching Superman 2 and just started watching Superman Returns
p161
aVSuperman Returns Superman 10 inch Action Figure New https://t.co/7oeH5m3MHS https://t.co/bPMWmwwZ6T
p162
aVIf Tom Welling returns as Superman then I'll be at peace with the way Smallville ended https://t.co/dnoM8OWVIS
p163
aVYesterday I watched Batman the Dark Knight Returns. And oh gosh I never knew how amazing animated movies are \U0001f60d Batman vs Superman #58days
p164
aVSuperman Returns\u2019 Lee Twins Are Drummers #tama #drummers https://t.co/XKu8TTdbJw
p165
aVSuperman Returns\u2019 Lee Twins Are Drummers #tama #drummers https://t.co/1ucMIce1JE
p166
aVSuperman Returns\u2019 Lee Twins Are Drummers #tama #drummers https://t.co/wiPmDKYNkq
p167
aV#ReallyRealSpoilers Next on Legends of Tomorrow: The gang changes the timeline &amp; Superman Returns is never filmed. https://t.co/zGBsStE6bX
p168
aV@flipyourface @elazic Superman returns has nothing on Batman returns, though. and did Prince make an album called Superman, NO HE DIDNT
p169
aV@melvillmatic @elazic A twist: people who prefer Nolan's Batmans over Superman Returns should be sentenced to life on a dunk tank
p170
aVHmm.. Gonna catch up w Ma sleep aft an episode of superman returns \U0001f638
p171
aVRT @i_raviteja: @NK2VLNSK Ben Affleck's Dare Devil, Green Lantern, Superman Returns...
p172
aV@NK2VLNSK Ben Affleck's Dare Devil, Green Lantern, Superman Returns...
p173
aVRT @theseoulstory: Lee Bumsoo (2 children) to join fixed cast of KBS 'Superman Returns', filming to start soon https://t.co/3tKyZ9oInK http\u2026
p174
aVRT @theseoulstory: Lee Bumsoo (2 children) to join fixed cast of KBS 'Superman Returns', filming to start soon https://t.co/3tKyZ9oInK http\u2026
p175
aVLee Bum Soo jadi cast Superman Returns\U0001f495 https://t.co/WYqeHfWvD4
p176
aVRT @theseoulstory: Lee Bumsoo (2 children) to join fixed cast of KBS 'Superman Returns', filming to start soon https://t.co/3tKyZ9oInK http\u2026
p177
aV@ThatKevinSmith your conversation with @BrandonJRouth has made me want to watch Superman Returns again... or at least start watching Legends
p178
aV@JCBaggee the problem when you pump up the gradients is that it ends up looking a lot faker. Kinda like Superman Returns weird brown.
p179
aVits almost the end of january aka the last episode of triplets to be broadcasted on superman returns iM NOT OKAY
p180
aV@advent_crash As soon as I read "superman returns", i almost immediately did a youtube search.
p181
aVI wonder if Superman Returns is a movie that will be better with age? I should give it a rewatch.
p182
aV@marvelzombiek Superman Returns being ANOTHER underrated Superman movie.
p183
aVRT @theseoulstory: Lee Bumsoo (2 children) to join fixed cast of KBS 'Superman Returns', filming to start soon https://t.co/3tKyZ9oInK http\u2026
p184
aVRT @shikidrama: Lee Beom Soo is joining Superman Returns. The PD is sure trying hard to fill the gap left behind by Song Il Gook and the tr\u2026
p185
aVRT @shikidrama: Lee Beom Soo is joining Superman Returns. The PD is sure trying hard to fill the gap left behind by Song Il Gook and the tr\u2026
p186
aVLee Beom Soo is joining Superman Returns. The PD is sure trying hard to fill the gap left behind by Song Il Gook and the triplets
p187
aVRT @theseoulstory: Lee Bumsoo (2 children) to join fixed cast of KBS 'Superman Returns', filming to start soon https://t.co/3tKyZ9oInK http\u2026
p188
aVI liked a @YouTube video https://t.co/GjoqD6hWI0 Heart &amp; Soul Superman Returns
p189
aVI'll never know why they didn't make a sequel to Superman Returns
p190
aVRT @theseoulstory: Lee Bumsoo (2 children) to join fixed cast of KBS 'Superman Returns', filming to start soon https://t.co/3tKyZ9oInK http\u2026
p191
aVSuperman Returns review By The Blockbuster Buster https://t.co/DXRsEbokRJ via @YouTube
p192
aVAlways tough to start housework when Superman Returns is on Sky Superhero #ManofSteel #favefilms
p193
aVRT @KDramaStars: \u2018Superman Returns\u2019 Ki Tae Young Is A Fool For His Daughter https://t.co/m2GpcBBDby https://t.co/Tx9NokRzRF
p194
aVRT @theseoulstory: Lee Bumsoo (2 children) to join fixed cast of KBS 'Superman Returns', filming to start soon https://t.co/3tKyZ9oInK http\u2026
p195
aVRT @KDramaStars: \u2018Superman Returns\u2019 Ki Tae Young Is A Fool For His Daughter https://t.co/m2GpcBBDby https://t.co/Tx9NokRzRF
p196
aVRT @KDramaStars: \u2018Superman Returns\u2019 Ki Tae Young Is A Fool For His Daughter https://t.co/m2GpcBBDby https://t.co/Tx9NokRzRF
p197
aVRT @theseoulstory: Lee Bumsoo (2 children) to join fixed cast of KBS 'Superman Returns', filming to start soon https://t.co/3tKyZ9oInK http\u2026
p198
asI4
(lp199
V@empiremagazine I'm going to 'choose' to dig up my old copy of Superman Returns. Dick.
p200
aV50. Superman Returns- I'm not sure what I want in a Superman movie but I've yet to see it. Routh is fine, Spacey over does it. #30in30
p201
aV@00_Gram @Uptomyknees For all its problems, I thought Superman Returns had a fine Luthor in Kevin Spacey.
p202
aV@PhilNobileJr @evansaathoff I would love a bmdcast about the pros and cons of Superman Returns and MoS
p203
aV@kevinpokeeffe My friends forced me to see Superman Returns on opening night instead of The Devil Wears Prada. I'm still scarred.
p204
aVSuperman Returns Disc Attack Action Figure 2006 Mattel Toy NIP J2109 https://t.co/vATCPb6KXz https://t.co/AbnBfAPy8V
p205
aVRT @KDramaStars: \u2018Superman Returns\u2019 Ki Tae Young Jokes About Rohee\u2019s Size https://t.co/kIYn2wecTj https://t.co/yGL7XHMgTq
p206
aVRT @KDramaStars: \u2018Superman Returns\u2019 Four Families Reunite https://t.co/qjBKuZGFMB https://t.co/9uGf2KNm8F
p207
aVTom welling is smallville THE GOAT show. Routh is superman returns with the plane crashing to the baseball stadium https://t.co/Impu4NN1dv
p208
aV@TheKashnerLife @KingFiq_9 The animated ones are dope af :/ better than superman returns lol
p209
aV@TheDVDGrouch it has sadly finally been updated just listened to Superman Returns rift when you talked about this https://t.co/qiGDP2qqGt
p210
aVMy lil #catwoman aka 1.5 returns back to see me in #miami soon. The #inked #superman\u2026 https://t.co/jOaqZOfBQI
p211
aV@NONCOMPOSMENTlS superman returns and catwoman. Dcs gems
p212
aV@reallllminos ah i see. I hope you can come to returns of superman but their episode will be ended soon :(
p213
aV@IngloriousTward @Danburden1138 whether it worked or not I'd rather they attempted new rather than recycle Reeve like Superman Returns.
p214
aV@UnknownNeo @GeneralTekno Because people don't understand Superman isn't *dark*. In Returns, he was still looking at the future. HIS future.
p215
aV@UnknownNeo @GeneralTekno They were. Now, they aren't. Because the Nolan movies made so much money and Superman Returns didn't.
p216
aVMany happy returns to #swfc striker superman hooperman @HOOP588
p217
aV\u2018Superman Returns\u2019 Four Families Reunite: \u2018Superman Returns\u2019 Four Families Reunite https://t.co/9UTqfYshCd
p218
aV\u2018Superman Returns\u2019 Ki Tae Young Jokes About Rohee\u2019s Size: \u2018Superman Returns\u2019 Ki Tae Young Jokes About Rohee\u2019s Size https://t.co/XGLU5KuAc5
p219
aV\u2018Superman Returns\u2019 Shares Behind The Scenes From Awards Ceremony: \u2018Superman Returns\u2019 Shares Behind The Scenes ... https://t.co/CbfB1FHE6e
p220
aV@BrandonJRouth enjoyed your interview with @ThatKevinSmith giving Superman Returns another watch in lieu of #LegendsOfTomorrow
p221
aV\u2018Superman Returns\u2019 Four Families Reunite https://t.co/lRumOSY4Dg
p222
aV\u2018Superman Returns\u2019 Ki Tae Young Jokes About Rohee\u2019s Size https://t.co/4srf1GW3OI
p223
aVActor Song Il Gook and his triplets Song Dae Han, Song Min Gook, and Song Man Sae, MMA fighter Choo Sung Hoon and\u2026 https://t.co/cX5h6igggb
p224
aV\u2018Superman Returns\u2019 Four Families Reunite https://t.co/El4Su117Ru
p225
aV\u2018Superman Returns\u2019 Ki Tae Young Jokes About Rohee\u2019s Size https://t.co/6D3Csqf9vp
p226
aV\u2018Superman Returns\u2019 Shares Behind The Scenes From Awards Ceremony https://t.co/lZlPKYYXfg
p227
aV\u2018Superman Returns\u2019 Lee Twins Are Drummers https://t.co/wtCMb4XUk4
p228
aV\u2018Superman Returns\u2019 Daebak Loves Dad\u2019s Food https://t.co/Vi0VZYlw3D
p229
aVActor Song Il Gook and his triplets Song Dae Han, Song Min Gook, and Song Man Sae, MMA fighter Choo Sung Hoon and\u2026 https://t.co/nbTNbQ3Tlg
p230
aVActor Song Il Gook and his triplets Song Dae Han, Song Min Gook, and Song Man Sae, MMA fighter Choo Sung Hoon and\u2026 https://t.co/W68ieMXAcc
p231
aVActor Song Il Gook and his triplets Song Dae Han, Song Min Gook, and Song Man Sae, MMA fighter Choo Sung Hoon and\u2026 https://t.co/eQgzD7u7Yg
p232
aVSoccer player Lee Dong Gook's youngest son Daebak on the preferred KBS 2 Television entertainment program 'Superman\u2026 https://t.co/qwAtmLfl1P
p233
aVSoccer player Lee Dong Gook's youngest son Daebak on the preferred KBS 2 Television entertainment program 'Superman\u2026 https://t.co/D2tjTj3Svg
p234
aVSoccer player Lee Dong Gook's youngest son Daebak on the preferred KBS 2 Television entertainment program 'Superman\u2026 https://t.co/UqIbp5VJUx
p235
aVActor Song Il Gook and his triplets Song Dae Han, Song Min Gook, and Song Man Sae, MMA fighter Choo Sung Hoon and\u2026 https://t.co/oJVs09LwV9
p236
aVActor Song Il Gook and his triplets Song Dae Han, Song Min Gook, and Song Man Sae, MMA fighter Choo Sung Hoon and\u2026 https://t.co/Ibls6QjJJf
p237
aVActor Song Il Gook and his triplets Song Dae Han, Song Min Gook, and Song Man Sae, MMA fighter Choo Sung Hoon and\u2026 https://t.co/5AP2keRarF
p238
aVActor Song Il Gook and his triplets Song Dae Han, Song Min Gook, and Song Man Sae, MMA fighter Choo Sung Hoon and\u2026 https://t.co/L4GO780E24
p239
aVActor Song Il Gook and his triplets Song Dae Han, Song Min Gook, and Song Man Sae, MMA fighter Choo Sung Hoon and\u2026 https://t.co/a5LgX9YJ3d
p240
aVActor Song Il Gook and his triplets Song Dae Han, Song Min Gook, and Song Man Sae, MMA fighter Choo Sung Hoon and\u2026 https://t.co/0m32KgS82K
p241
aVSoccer player Lee Dong Gook's youngest son Daebak on the preferred KBS 2 Television entertainment program 'Superman\u2026 https://t.co/QR5qoJOxi6
p242
aVSoccer player Lee Dong Gook's youngest son Daebak on the preferred KBS 2 Television entertainment program 'Superman\u2026 https://t.co/dI3bBRE0Ss
p243
aVSoccer player Lee Dong Gook's youngest son Daebak on the preferred KBS 2 Television entertainment program 'Superman\u2026 https://t.co/FWxxDgyxMd
p244
aVActor Song Il Gook and his triplets Song Dae Han, Song Min Gook, and Song Man Sae, MMA fighter Choo Sung Hoon and\u2026 https://t.co/5GGY7DMDAC
p245
aVActor Song Il Gook and his triplets Song Dae Han, Song Min Gook, and Song Man Sae, MMA fighter Choo Sung Hoon and\u2026 https://t.co/uide5mXw4x
p246
aVSoccer player Lee Dong Gook's youngest son Daebak on the preferred KBS 2 Television entertainment program 'Superman\u2026 https://t.co/qr6ijgbxwU
p247
aVSoccer player Lee Dong Gook's youngest son Daebak on the preferred KBS 2 Television entertainment program 'Superman\u2026 https://t.co/TYxDLDPYrz
p248
aVSoccer player Lee Dong Gook's youngest son Daebak on the preferred KBS 2 Television entertainment program 'Superman\u2026 https://t.co/8H4D3hNmqg
p249
asI5
(lp250
VRT @_TronVin_: It seems like Batman v Superman is a story that borrows heavily from Luthor: Man of Steel and The Dark Knight Returns.
p251
aVIt seems like Batman v Superman is a story that borrows heavily from Luthor: Man of Steel and The Dark Knight Returns.
p252
aVHad to rewatch Superman Returns, movie could have been so much better. Man of Steel still the best Superman movie!!
p253
aVRT @mattymo83: Watched "Superman Returns" earlier and made me wanna sketch. #art #comics #superman #comicart #artist #illustration https://\u2026
p254
aVWhy was batman trashing superman like that in The Dark Knight Returns Part 2 lmao
p255
aV2006 MATTEL SUPERMAN RETURNS CLARK TO SUPERMAN 5\u201d FIGURE W/ CLOTHING NEW IN PKG https://t.co/LiCpxNMGYr https://t.co/FbfpDrbj5h
p256
aV@pshore73 @BuckWoodyMSFT He was stabbed with kryptonite in Superman Returns. Once it was pulled out, he healed fairly quickly.
p257
aV@le_canuck Well we did have the recent Batman series and Superman Returns / Man of Steel were sort of origin stories
p258
aV@RicksWriting Watched "Superman Returns" and it's okay. Love Kevin Spacey as Lex Luther though.
p259
aVSuperman Returns (2006) \u2605\u2605\u2605\u2605\u2605\u2606\u2606\u2606\u2606\u2606 https://t.co/0pxruZ8Hcb #trakt
p260
aVRT @KanKanDances: Superman Returns is such a hot mess
p261
aVRT @KDramaStars: \u2018Superman Returns\u2019 Song Triplets Buy Their Dad Coffee https://t.co/s8FSr2WmG9 https://t.co/ULNA405Ffw
p262
aVRT @KDramaStars: \u2018Superman Returns\u2019 Song Dae Han Orders A Caramel Macchiato For Dad https://t.co/TrhESidC4Y https://t.co/SDzNSz0ljc
p263
aV@HeymanHustle  only thing I can think of is fracken Cena will do one of his Superman returns and destrap Paul (hhh) at mania. Stupid...
p264
aVSuperman Returns is such a hot mess
p265
aVEveryone wants to pretend Superman Returns didn't happen
p266
aVActor Song Il Gook and his triplets Song Dae Han, Song Min Gook, and Song Guy Sae, MMA fighter Choo Sung Hoon ... https://t.co/XcksmFlevE
p267
aVActor Song Il Gook and his triplets Song Dae Han, Song Min Gook, and Song Guy Sae, MMA fighter Choo Sung Hoon ... https://t.co/mHn7c6dgTM
p268
aVActor Song Il Gook and his triplets Song Dae Han, Song Min Gook, and Song Guy Sae, MMA fighter Choo Sung Hoon ... https://t.co/AlTZv9xJf0
p269
aVActor Song Il Gook and his triplets Song Dae Han, Song Min Gook, and Song Guy Sae, MMA fighter Choo Sung Hoon ... https://t.co/rvbPeNj3NA
p270
aVStarting with Superman Returns \U0001f608
p271
aV\u2018Superman Returns\u2019 Eugene Cries Ahead of Leaving Rohee And Ki Tae Young https://t.co/O9DI1tLvRS
p272
aVActor Song Il Gook and his triplets Song Dae Han, Song Min Gook, and Song Guy Sae, MMA fighter Choo Sung Hoon ... https://t.co/aabW8aPhUL
p273
aVActor Song Il Gook and his triplets Song Dae Han, Song Min Gook, and Song Guy Sae, MMA\u2026 https://t.co/xxkUgKAn76 https://t.co/OHGogGtilx
p274
aVActor Song Il Gook and his triplets Song Dae Han, Song Min Gook, and Song Guy Sae, MMA\u2026 https://t.co/nqLBzYpi97 https://t.co/P4nic0UIwq
p275
aVActor Song Il Gook and his triplets Song Dae Han, Song Min Gook, and Song Guy Sae, MMA\u2026 https://t.co/2VQ7Iz2aXq https://t.co/CYGirod3pu
p276
aVActor Song Il Gook and his triplets Song Dae Han, Song Min Gook, and Song Guy Sae, MMA\u2026 https://t.co/U7QtIHxVS6 https://t.co/XSD9HCi0gR
p277
aVActor Song Il Gook and his triplets Song Dae Han, Song Min Gook, and Song Guy Sae, MMA\u2026 https://t.co/n7ZuuBPPg0 https://t.co/V1iN9lACZG
p278
aVActor Song Il Gook and his triplets Song Dae Han, Song Min Gook, and Song Guy Sae, MMA\u2026 https://t.co/XyR1YXCgiY https://t.co/iK2FhAgJ3f
p279
aVActor Song Il Gook and his triplets Song Dae Han, Song Min Gook, and Song Guy Sae, MMA\u2026 https://t.co/q64H6gPxBt https://t.co/KqOqqCtQhq
p280
aVActor Song Il Gook and his triplets Song Dae Han, Song Min Gook, and Song Guy Sae, MMA\u2026 https://t.co/HvLJlWaXfO https://t.co/kF1xVjt6fj
p281
aVActor Song Il Gook and his triplets Song Dae Han, Song Min Gook, and Song Guy Sae, MMA\u2026 https://t.co/6bFnCBthZM https://t.co/NVmCriXFnE
p282
aVActor Song Il Gook and his triplets Song Dae Han, Song Min Gook, and Song Guy Sae, MMA\u2026 https://t.co/BlcfNXnzS0 https://t.co/CCKTDY0yuG
p283
aVActor Song Il Gook and his triplets Song Dae Han, Song Min Gook, and Song Guy Sae, MMA\u2026 https://t.co/3LarGzXbuq https://t.co/NavwmynBgq
p284
aVActor Song Il Gook and his triplets Song Dae Han, Song Min Gook, and Song Guy Sae, MMA\u2026 https://t.co/XZrY0Ec6vg https://t.co/w6bi5HTRuO
p285
aVActor Song Il Gook and his triplets Song Dae Han, Song Min Gook, and Song Guy Sae, MMA\u2026 https://t.co/NHPRO1BFgX https://t.co/ERYy3NXAyp
p286
aVActor Song Il Gook and his triplets Song Dae Han, Song Min Gook, and Song Guy Sae, MMA\u2026 https://t.co/xOwqJ98e36 https://t.co/qP8ZDiW9Ge
p287
aVActor Song Il Gook and his triplets Song Dae Han, Song Min Gook, and Song Guy Sae, MMA\u2026 https://t.co/8XsdMMuglj https://t.co/wv8x3gFuVU
p288
aVActor Song Il Gook and his triplets Song Dae Han, Song Min Gook, and Song Guy Sae, MMA\u2026 https://t.co/siREuziiuI https://t.co/aSbNEKrHTS
p289
aVActor Song Il Gook and his triplets Song Dae Han, Song Min Gook, and Song Guy Sae, MMA\u2026 https://t.co/XZwg0tA3k5 https://t.co/qtzbHApOgP
p290
aVActor Song Il Gook and his triplets Song Dae Han, Song Min Gook, and Song Guy Sae, MMA\u2026 https://t.co/aL94PhG9sw https://t.co/CIHdkRtdJX
p291
aV\u2018Superman Returns\u2019 Eugene Cries Before Leaving Rohee And Ki Tae Young: \u2018Superman Returns\u2019 Eugene Cries Before ... https://t.co/cCefI7VC7k
p292
aV\u2018Superman Returns\u2019 Lee Twins Perform A Nanta Concert: \u2018Superman Returns\u2019 Lee Twins Perform A Nanta Concert https://t.co/Wbbrmu5dYB
p293
aV\u2018Superman Returns\u2019 Daebak Eats Rice For The First Time: \u2018Superman Returns\u2019 Daebak Eats Rice For The First Time https://t.co/MNuTPiB21J
p294
aVRT @KDramaStars: \u2018Superman Returns\u2019 Eugene Cries Before Leaving Rohee And Ki Tae Young https://t.co/kpibfMH4WC https://t.co/sHVJSSYNEI
p295
aV\u2018Superman Returns\u2019 Eugene Cries Before Leaving Rohee And Ki Tae Young https://t.co/sfCFIAEQ9R https://t.co/VjlJtedgA5
p296
aV\u2018Superman Returns\u2019 Eugene Cries Before Leaving Rohee And Ki Tae Young https://t.co/YrptqlwLoX https://t.co/0MlcRVkVRE
p297
aV\u2018Superman Returns\u2019 Eugene Cries Before Leaving Rohee And Ki Tae Young https://t.co/tAG12wa8Z1 https://t.co/Ppgc5ze2nI
p298
aV\u2018Superman Returns\u2019 Eugene Cries Before Leaving Rohee And Ki Tae Young https://t.co/cVx6HMRmoW https://t.co/lya83qKnsJ
p299
aV\u2018Superman Returns\u2019 Eugene Cries Before Leaving Rohee And Ki Tae Young https://t.co/XLeqlJOZgT https://t.co/gkbp5gU73K
p300
as.