(dp0
I0
(lp1
VGreat performance's Great story enjoyed Ki and Kaa Great work !! #r.balaki #KareenaKapoorKhan #arjunkapoor
p2
asI1
(lp3
sI2
(lp4
V@arjunk26 hey arjun sir ,ur movie ki &amp; kaa is really a awesome movie and it gives a best message to every one ,either KI or KAA
p5
aVIs the role of "KA" from KI AND KA was played by the KAA of Jungle Book then that movie would have been a Blockbuster.
p6
asI3
(lp7
VShouldn't the snake in #junglebook be Ki and not Kaa #ScarlettJohansson
p8
asI4
(lp9
V@taran_adarsh ki and kaa 2 nd week???
p10
aVRT @GM_MTDC: Robert Vadra trending is he behind Bars for ki and kaa reversal
p11
aVRobert Vadra trending is he behind Bars for ki and kaa reversal
p12
asI5
(lp13
VI just watched #ki and #kaa on their birthday #ya on Anniversary too.... #KiAndKa https://t.co/Utq9fTuM3r
p14
as.